target datalayout = "e-m:e-p270:32:32-p271:32:32-p272:64:64-i64:64-i128:128-f80:128-n8:16:32:64-S128"
target triple = "x86_64-pc-linux-gnu"

%"class.nlsat::explain" = type { ptr }

; Function Attrs: mustprogress uwtable
define linkonce_odr hidden void @_Z7deallocIN5nlsat7explain3impEEvPT_(ptr noundef %0) #6 comdat {
  %2 = alloca ptr, align 8
  store ptr %0, ptr %2, align 8, !tbaa !31
  %3 = load ptr, ptr %2, align 8, !tbaa !31
  %4 = icmp eq ptr %3, null
  br i1 %4, label %5, label %6

5:                                                ; preds = %1
  br label %9

6:                                                ; preds = %1
  %7 = load ptr, ptr %2, align 8, !tbaa !31
  call void @_ZN5nlsat7explain3impD2Ev(ptr noundef nonnull align 8 dereferenceable(296) %7) #3
  %8 = load ptr, ptr %2, align 8, !tbaa !31
  call void @_ZN6memory10deallocateEPv(ptr noundef %8)
  br label %9

9:                                                ; preds = %6, %5
  ret void
}

; Function Attrs: mustprogress nounwind uwtable
define hidden void @_ZN5nlsat7explainD2Ev(ptr noundef nonnull align 8 dereferenceable(8) %0) unnamed_addr #4 align 2 personality ptr @__gxx_personality_v0 {
  %2 = alloca ptr, align 8
  store ptr %0, ptr %2, align 8, !tbaa !16
  %3 = load ptr, ptr %2, align 8
  %4 = getelementptr inbounds nuw %"class.nlsat::explain", ptr %3, i32 0, i32 0
  %5 = load ptr, ptr %4, align 8, !tbaa !28
  invoke void @_Z7deallocIN5nlsat7explain3impEEvPT_(ptr noundef %5)
          to label %6 unwind label %7

6:                                                ; preds = %1
  ret void

7:                                                ; preds = %1
  %8 = landingpad { ptr, i32 }
          catch ptr null
  %9 = extractvalue { ptr, i32 } %8, 0
  call void @__clang_call_terminate(ptr %9) #18
  unreachable
}